; ModuleID = '49/279.c'
source_filename = "49/279.c"
target datalayout = "e-m:e-p270:32:32-p271:32:32-p272:64:64-i64:64-f80:128-n8:16:32:64-S128"
target triple = "x86_64-pc-linux-gnu"

@.str = private unnamed_addr constant [3 x i8] c"%c\00", align 1
@.str.1 = private unnamed_addr constant [2 x i8] c"\0A\00", align 1

; Function Attrs: noinline nounwind uwtable
define dso_local void @main() #0 {
  %1 = alloca [501 x i8], align 16
  %2 = alloca i8*, align 8
  %3 = alloca i32, align 4
  %4 = alloca i32, align 4
  %5 = alloca i32, align 4
  %6 = alloca i32, align 4
  %7 = alloca i32, align 4
  %8 = alloca i32, align 4
  store i32 1, i32* %8, align 4
  store i32 0, i32* %4, align 4
  br label %9

9:                                                ; preds = %27, %0
  %10 = load i32, i32* %4, align 4
  %11 = icmp slt i32 %10, 500
  br i1 %11, label %12, label %30

12:                                               ; preds = %9
  %13 = load i32, i32* %4, align 4
  %14 = sext i32 %13 to i64
  %15 = getelementptr inbounds [501 x i8], [501 x i8]* %1, i64 0, i64 %14
  %16 = call i32 (i8*, ...) @__isoc99_scanf(i8* getelementptr inbounds ([3 x i8], [3 x i8]* @.str, i64 0, i64 0), i8* %15)
  %17 = load i32, i32* %4, align 4
  %18 = sext i32 %17 to i64
  %19 = getelementptr inbounds [501 x i8], [501 x i8]* %1, i64 0, i64 %18
  %20 = load i8, i8* %19, align 1
  %21 = sext i8 %20 to i32
  %22 = icmp eq i32 %21, 10
  br i1 %22, label %23, label %26

23:                                               ; preds = %12
  %24 = load i32, i32* %4, align 4
  %25 = add nsw i32 %24, 1
  store i32 %25, i32* %7, align 4
  br label %30

26:                                               ; preds = %12
  br label %27

27:                                               ; preds = %26
  %28 = load i32, i32* %4, align 4
  %29 = add nsw i32 %28, 1
  store i32 %29, i32* %4, align 4
  br label %9

30:                                               ; preds = %23, %9
  store i32 2, i32* %3, align 4
  br label %31

31:                                               ; preds = %103, %30
  %32 = load i32, i32* %3, align 4
  %33 = load i32, i32* %7, align 4
  %34 = icmp sle i32 %32, %33
  br i1 %34, label %35, label %106

35:                                               ; preds = %31
  store i32 0, i32* %5, align 4
  br label %36

36:                                               ; preds = %99, %35
  %37 = load i32, i32* %5, align 4
  %38 = load i32, i32* %7, align 4
  %39 = load i32, i32* %3, align 4
  %40 = sub nsw i32 %38, %39
  %41 = icmp sle i32 %37, %40
  br i1 %41, label %42, label %102

42:                                               ; preds = %36
  %43 = load i32, i32* %5, align 4
  %44 = sext i32 %43 to i64
  %45 = getelementptr inbounds [501 x i8], [501 x i8]* %1, i64 0, i64 %44
  store i8* %45, i8** %2, align 8
  store i32 1, i32* %8, align 4
  store i32 0, i32* %6, align 4
  br label %46

46:                                               ; preds = %74, %42
  %47 = load i32, i32* %6, align 4
  %48 = load i32, i32* %3, align 4
  %49 = sdiv i32 %48, 2
  %50 = icmp slt i32 %47, %49
  br i1 %50, label %51, label %77

51:                                               ; preds = %46
  %52 = load i8*, i8** %2, align 8
  %53 = load i32, i32* %6, align 4
  %54 = sext i32 %53 to i64
  %55 = getelementptr inbounds i8, i8* %52, i64 %54
  %56 = load i8, i8* %55, align 1
  %57 = sext i8 %56 to i32
  %58 = load i8*, i8** %2, align 8
  %59 = load i32, i32* %3, align 4
  %60 = sext i32 %59 to i64
  %61 = getelementptr inbounds i8, i8* %58, i64 %60
  %62 = getelementptr inbounds i8, i8* %61, i64 -1
  %63 = load i32, i32* %6, align 4
  %64 = sext i32 %63 to i64
  %65 = sub i64 0, %64
  %66 = getelementptr inbounds i8, i8* %62, i64 %65
  %67 = load i8, i8* %66, align 1
  %68 = sext i8 %67 to i32
  %69 = icmp ne i32 %57, %68
  br i1 %69, label %70, label %73

70:                                               ; preds = %51
  %71 = load i32, i32* %8, align 4
  %72 = mul nsw i32 %71, 0
  store i32 %72, i32* %8, align 4
  br label %77

73:                                               ; preds = %51
  br label %74

74:                                               ; preds = %73
  %75 = load i32, i32* %6, align 4
  %76 = add nsw i32 %75, 1
  store i32 %76, i32* %6, align 4
  br label %46

77:                                               ; preds = %70, %46
  %78 = load i32, i32* %8, align 4
  %79 = icmp eq i32 %78, 1
  br i1 %79, label %80, label %98

80:                                               ; preds = %77
  store i32 0, i32* %6, align 4
  br label %81

81:                                               ; preds = %93, %80
  %82 = load i32, i32* %6, align 4
  %83 = load i32, i32* %3, align 4
  %84 = icmp slt i32 %82, %83
  br i1 %84, label %85, label %96

85:                                               ; preds = %81
  %86 = load i8*, i8** %2, align 8
  %87 = load i32, i32* %6, align 4
  %88 = sext i32 %87 to i64
  %89 = getelementptr inbounds i8, i8* %86, i64 %88
  %90 = load i8, i8* %89, align 1
  %91 = sext i8 %90 to i32
  %92 = call i32 (i8*, ...) @printf(i8* getelementptr inbounds ([3 x i8], [3 x i8]* @.str, i64 0, i64 0), i32 %91)
  br label %93

93:                                               ; preds = %85
  %94 = load i32, i32* %6, align 4
  %95 = add nsw i32 %94, 1
  store i32 %95, i32* %6, align 4
  br label %81

96:                                               ; preds = %81
  %97 = call i32 (i8*, ...) @printf(i8* getelementptr inbounds ([2 x i8], [2 x i8]* @.str.1, i64 0, i64 0))
  br label %98

98:                                               ; preds = %96, %77
  br label %99

99:                                               ; preds = %98
  %100 = load i32, i32* %5, align 4
  %101 = add nsw i32 %100, 1
  store i32 %101, i32* %5, align 4
  br label %36

102:                                              ; preds = %36
  br label %103

103:                                              ; preds = %102
  %104 = load i32, i32* %3, align 4
  %105 = add nsw i32 %104, 1
  store i32 %105, i32* %3, align 4
  br label %31

106:                                              ; preds = %31
  ret void
}

declare dso_local i32 @__isoc99_scanf(i8*, ...) #1

declare dso_local i32 @printf(i8*, ...) #1


!llvm.module.flags = !{!0}
!llvm.ident = !{!1}

!0 = !{i32 1, !"wchar_size", i32 4}
!1 = !{!"clang version 10.0.0-4ubuntu1 "}
